; Function Attrs: mustprogress uwtable
define noundef zeroext i1 @_ZNK4cvc58internal9LogicInfo8isLinearEv(ptr nocapture noundef nonnull readonly align 8 dereferenceable(88) %this) local_unnamed_addr #3 align 2 personality ptr @__gxx_personality_v0 {
entry:
  %ref.tmp = alloca %"class.std::__cxx11::basic_string", align 8
  %ref.tmp9 = alloca %"class.std::__cxx11::basic_string", align 8
  %d_locked = getelementptr inbounds i8, ptr %this, i64 87
  %0 = load i8, ptr %d_locked, align 1
  %1 = and i8 %0, 1
  %tobool.not = icmp eq i8 %1, 0
  br i1 %tobool.not, label %if.then, label %do.body4

if.then:                                          ; preds = %entry
  %exception = tail call ptr @__cxa_allocate_exception(i64 40) #14
  invoke void (ptr, ptr, ...) @_ZN4cvc58internal24IllegalArgumentException14formatVariadicB5cxx11EPKcz(ptr nonnull sret(%"class.std::__cxx11::basic_string") align 8 %ref.tmp, ptr noundef nonnull @.str.3)
          to label %invoke.cont unwind label %ehcleanup.thread

invoke.cont:                                      ; preds = %if.then
  %call = call noundef ptr @_ZNKSt7__cxx1112basic_stringIcSt11char_traitsIcESaIcEE5c_strEv(ptr noundef nonnull align 8 dereferenceable(32) %ref.tmp) #14
  invoke void @_ZN4cvc58internal24IllegalArgumentExceptionC2EPKcS3_S3_S3_(ptr noundef nonnull align 8 dereferenceable(40) %exception, ptr noundef nonnull @.str.1, ptr noundef nonnull @.str.2, ptr noundef nonnull @__PRETTY_FUNCTION__._ZNK4cvc58internal9LogicInfo8isLinearEv, ptr noundef %call)
          to label %invoke.cont3 unwind label %ehcleanup.thread8

ehcleanup.thread8:                                ; preds = %invoke.cont
  %2 = landingpad { ptr, i32 }
          cleanup
  call void @_ZNSt7__cxx1112basic_stringIcSt11char_traitsIcESaIcEED1Ev(ptr noundef nonnull align 8 dereferenceable(32) %ref.tmp) #14
  br label %cleanup.action

invoke.cont3:                                     ; preds = %invoke.cont
  invoke void @__cxa_throw(ptr nonnull %exception, ptr nonnull @_ZTIN4cvc58internal24IllegalArgumentExceptionE, ptr nonnull @_ZN4cvc58internal24IllegalArgumentExceptionD2Ev) #16
          to label %unreachable unwind label %ehcleanup

ehcleanup.thread:                                 ; preds = %if.then
  %3 = landingpad { ptr, i32 }
          cleanup
  br label %cleanup.action

ehcleanup:                                        ; preds = %invoke.cont3
  %4 = landingpad { ptr, i32 }
          cleanup
  call void @_ZNSt7__cxx1112basic_stringIcSt11char_traitsIcESaIcEED1Ev(ptr noundef nonnull align 8 dereferenceable(32) %ref.tmp) #14
  br label %eh.resume

cleanup.action:                                   ; preds = %ehcleanup.thread8, %ehcleanup.thread
  %.pn27 = phi { ptr, i32 } [ %3, %ehcleanup.thread ], [ %2, %ehcleanup.thread8 ]
  call void @__cxa_free_exception(ptr %exception) #14
  br label %eh.resume

do.body4:                                         ; preds = %entry
  %call5 = tail call noundef zeroext i1 @_ZNK4cvc58internal9LogicInfo15isTheoryEnabledENS0_6theory8TheoryIdE(ptr noundef nonnull align 8 dereferenceable(88) %this, i32 noundef 3)
  br i1 %call5, label %do.end22, label %if.then7

if.then7:                                         ; preds = %do.body4
  %exception8 = tail call ptr @__cxa_allocate_exception(i64 40) #14
  invoke void (ptr, ptr, ...) @_ZN4cvc58internal24IllegalArgumentException14formatVariadicB5cxx11EPKcz(ptr nonnull sret(%"class.std::__cxx11::basic_string") align 8 %ref.tmp9, ptr noundef nonnull @.str.8)
          to label %invoke.cont11 unwind label %ehcleanup17.thread

invoke.cont11:                                    ; preds = %if.then7
  %call12 = call noundef ptr @_ZNKSt7__cxx1112basic_stringIcSt11char_traitsIcESaIcEE5c_strEv(ptr noundef nonnull align 8 dereferenceable(32) %ref.tmp9) #14
  invoke void @_ZN4cvc58internal24IllegalArgumentExceptionC2EPKcS3_S3_S3_(ptr noundef nonnull align 8 dereferenceable(40) %exception8, ptr noundef nonnull @.str.4, ptr noundef nonnull @.str.2, ptr noundef nonnull @__PRETTY_FUNCTION__._ZNK4cvc58internal9LogicInfo8isLinearEv, ptr noundef %call12)
          to label %invoke.cont14 unwind label %ehcleanup17.thread13

ehcleanup17.thread13:                             ; preds = %invoke.cont11
  %5 = landingpad { ptr, i32 }
          cleanup
  call void @_ZNSt7__cxx1112basic_stringIcSt11char_traitsIcESaIcEED1Ev(ptr noundef nonnull align 8 dereferenceable(32) %ref.tmp9) #14
  br label %cleanup.action19

invoke.cont14:                                    ; preds = %invoke.cont11
  invoke void @__cxa_throw(ptr nonnull %exception8, ptr nonnull @_ZTIN4cvc58internal24IllegalArgumentExceptionE, ptr nonnull @_ZN4cvc58internal24IllegalArgumentExceptionD2Ev) #16
          to label %unreachable unwind label %ehcleanup17

ehcleanup17.thread:                               ; preds = %if.then7
  %6 = landingpad { ptr, i32 }
          cleanup
  br label %cleanup.action19

ehcleanup17:                                      ; preds = %invoke.cont14
  %7 = landingpad { ptr, i32 }
          cleanup
  call void @_ZNSt7__cxx1112basic_stringIcSt11char_traitsIcESaIcEED1Ev(ptr noundef nonnull align 8 dereferenceable(32) %ref.tmp9) #14
  br label %eh.resume

cleanup.action19:                                 ; preds = %ehcleanup17.thread13, %ehcleanup17.thread
  %.pn12 = phi { ptr, i32 } [ %6, %ehcleanup17.thread ], [ %5, %ehcleanup17.thread13 ]
  call void @__cxa_free_exception(ptr %exception8) #14
  br label %eh.resume

do.end22:                                         ; preds = %do.body4
  %d_linear = getelementptr inbounds i8, ptr %this, i64 83
  %8 = load i8, ptr %d_linear, align 1
  %9 = and i8 %8, 1
  %tobool23.not = icmp ne i8 %9, 0
  %d_differenceLogic = getelementptr inbounds i8, ptr %this, i64 84
  %10 = load i8, ptr %d_differenceLogic, align 4
  %11 = and i8 %10, 1
  %tobool24 = icmp ne i8 %11, 0
  %12 = select i1 %tobool23.not, i1 true, i1 %tobool24
  ret i1 %12

eh.resume:                                        ; preds = %ehcleanup17, %ehcleanup, %cleanup.action19, %cleanup.action
  %.pn2.pn = phi { ptr, i32 } [ %.pn27, %cleanup.action ], [ %4, %ehcleanup ], [ %.pn12, %cleanup.action19 ], [ %7, %ehcleanup17 ]
  resume { ptr, i32 } %.pn2.pn

unreachable:                                      ; preds = %invoke.cont14, %invoke.cont3
  unreachable
}